target datalayout = "e-m:e-p270:32:32-p271:32:32-p272:64:64-i64:64-i128:128-f80:128-n8:16:32:64-S128"
target triple = "x86_64-pc-linux-gnu"

%struct.expert_field = type { i32, i32 }

@hf_nfapi_mcch_flag = internal global i32 0, align 4
@hf_nfapi_mcch_change_notification = internal global i32 0, align 4
@hf_nfapi_scrambling_identity = internal global i32 0, align 4
@ei_invalid_range = internal global %struct.expert_field zeroinitializer, align 4
@.str.2030 = private unnamed_addr constant [31 x i8] c"Invalid mcch flag value [0..1]\00", align 1
@.str.2031 = private unnamed_addr constant [41 x i8] c"Invalid scrambling identity value [0..1]\00", align 1

; Function Attrs: nounwind uwtable
define internal void @dissect_dl_config_request_dl_dci_pdu_rel9_value(ptr noundef %0, ptr noundef %1) #0 {
  %3 = alloca ptr, align 8
  %4 = alloca ptr, align 8
  %5 = alloca ptr, align 8
  %6 = alloca i32, align 4
  %7 = alloca i32, align 4
  store ptr %0, ptr %3, align 8
  store ptr %1, ptr %4, align 8
  %8 = load ptr, ptr %3, align 8
  %9 = load i32, ptr @hf_nfapi_mcch_flag, align 4
  %10 = call ptr @ptvcursor_add_ret_boolean(ptr noundef %8, i32 noundef %9, i32 noundef 1, i32 noundef 0, ptr noundef %7)
  store ptr %10, ptr %5, align 8
  %11 = load i32, ptr %7, align 4
  %12 = icmp sgt i32 %11, 1
  br i1 %12, label %13, label %17

13:                                               ; preds = %2
  %14 = load ptr, ptr %4, align 8
  %15 = load ptr, ptr %5, align 8
  %16 = call ptr (ptr, ptr, ptr, ptr, ...) @expert_add_info_format(ptr noundef %14, ptr noundef %15, ptr noundef @ei_invalid_range, ptr noundef @.str.2030)
  br label %17

17:                                               ; preds = %13, %2
  %18 = load ptr, ptr %3, align 8
  %19 = load i32, ptr @hf_nfapi_mcch_change_notification, align 4
  %20 = call ptr @ptvcursor_add(ptr noundef %18, i32 noundef %19, i32 noundef 1, i32 noundef 0)
  %21 = load ptr, ptr %3, align 8
  %22 = load i32, ptr @hf_nfapi_scrambling_identity, align 4
  %23 = call ptr @ptvcursor_add_ret_uint(ptr noundef %21, i32 noundef %22, i32 noundef 1, i32 noundef 0, ptr noundef %6)
  store ptr %23, ptr %5, align 8
  %24 = load i32, ptr %6, align 4
  %25 = icmp ugt i32 %24, 1
  br i1 %25, label %26, label %30

26:                                               ; preds = %17
  %27 = load ptr, ptr %4, align 8
  %28 = load ptr, ptr %5, align 8
  %29 = call ptr (ptr, ptr, ptr, ptr, ...) @expert_add_info_format(ptr noundef %27, ptr noundef %28, ptr noundef @ei_invalid_range, ptr noundef @.str.2031)
  br label %30

30:                                               ; preds = %26, %17
  ret void
}