; Function Attrs: nounwind uwtable
define internal void @dissect_dl_config_request_dl_dci_pdu_rel9_value(ptr noundef %0, ptr noundef %1) #0 {
  %3 = alloca i32, align 4
  %4 = alloca i32, align 4
  %5 = load i32, ptr @hf_nfapi_mcch_flag, align 4
  %6 = call ptr @ptvcursor_add_ret_boolean(ptr noundef %0, i32 noundef %5, i32 noundef 1, i32 noundef 0, ptr noundef nonnull %4) #7
  %7 = load i32, ptr %4, align 4
  %8 = icmp sgt i32 %7, 1
  br i1 %8, label %9, label %11

9:                                                ; preds = %2
  %10 = call ptr (ptr, ptr, ptr, ptr, ...) @expert_add_info_format(ptr noundef %1, ptr noundef %6, ptr noundef nonnull @ei_invalid_range, ptr noundef nonnull @.str.2030) #7
  br label %11

11:                                               ; preds = %9, %2
  %12 = load i32, ptr @hf_nfapi_mcch_change_notification, align 4
  %13 = call ptr @ptvcursor_add(ptr noundef %0, i32 noundef %12, i32 noundef 1, i32 noundef 0) #7
  %14 = load i32, ptr @hf_nfapi_scrambling_identity, align 4
  %15 = call ptr @ptvcursor_add_ret_uint(ptr noundef %0, i32 noundef %14, i32 noundef 1, i32 noundef 0, ptr noundef nonnull %3) #7
  %16 = load i32, ptr %3, align 4
  %17 = icmp ugt i32 %16, 1
  br i1 %17, label %18, label %20

18:                                               ; preds = %11
  %19 = call ptr (ptr, ptr, ptr, ptr, ...) @expert_add_info_format(ptr noundef %1, ptr noundef %15, ptr noundef nonnull @ei_invalid_range, ptr noundef nonnull @.str.2031) #7
  br label %20

20:                                               ; preds = %18, %11
  ret void
}